; Function Attrs: mustprogress uwtable
define void @_ZN6casadi17SundialsInterfaceC2ERKNSt7__cxx1112basic_stringIcSt11char_traitsIcESaIcEEERKNS_8FunctionEdRKSt6vectorIdSaIdEE(ptr noundef nonnull align 8 dereferenceable(2120) %0, ptr noundef nonnull align 8 dereferenceable(32) %1, ptr noundef nonnull align 8 dereferenceable(8) %2, double noundef %3, ptr noundef nonnull align 8 dereferenceable(24) %4) unnamed_addr #3 align 2 personality ptr @__gxx_personality_v0 {
  tail call void @_ZN6casadi10IntegratorC2ERKNSt7__cxx1112basic_stringIcSt11char_traitsIcESaIcEEERKNS_8FunctionEdRKSt6vectorIdSaIdEE(ptr noundef nonnull align 8 dereferenceable(1905) %0, ptr noundef nonnull align 8 dereferenceable(32) %1, ptr noundef nonnull align 8 dereferenceable(8) %2, double noundef %3, ptr noundef nonnull align 8 dereferenceable(24) %4)
  store ptr getelementptr inbounds ({ [123 x ptr], [3 x ptr] }, ptr @_ZTVN6casadi17SundialsInterfaceE, i64 0, i32 0, i64 2), ptr %0, align 8
  %6 = getelementptr inbounds i8, ptr %0, i64 1520
  store ptr getelementptr inbounds ({ [123 x ptr], [3 x ptr] }, ptr @_ZTVN6casadi17SundialsInterfaceE, i64 0, i32 1, i64 2), ptr %6, align 8
  %7 = getelementptr inbounds i8, ptr %0, i64 1968
  tail call void @_ZNSt7__cxx1112basic_stringIcSt11char_traitsIcESaIcEEC1Ev(ptr noundef nonnull align 8 dereferenceable(32) %7) #23
  %8 = getelementptr inbounds i8, ptr %0, i64 2008
  store i32 0, ptr %8, align 8
  %9 = getelementptr inbounds i8, ptr %0, i64 2016
  store ptr null, ptr %9, align 8
  %10 = getelementptr inbounds i8, ptr %0, i64 2024
  store ptr %8, ptr %10, align 8
  %11 = getelementptr inbounds i8, ptr %0, i64 2032
  store ptr %8, ptr %11, align 8
  %12 = getelementptr inbounds i8, ptr %0, i64 2040
  store i64 0, ptr %12, align 8
  %13 = getelementptr inbounds i8, ptr %0, i64 2104
  invoke void @_ZN6casadi6LinsolC1Ev(ptr noundef nonnull align 8 dereferenceable(8) %13)
          to label %14 unwind label %15

14:                                               ; preds = %5
  ret void

15:                                               ; preds = %5
  %16 = landingpad { ptr, i32 }
          cleanup
  %17 = getelementptr inbounds i8, ptr %0, i64 2000
  tail call void @_ZNSt3mapINSt7__cxx1112basic_stringIcSt11char_traitsIcESaIcEEEN6casadi11GenericTypeESt4lessIS5_ESaISt4pairIKS5_S7_EEED2Ev(ptr noundef nonnull align 8 dereferenceable(48) %17) #23
  tail call void @_ZNSt7__cxx1112basic_stringIcSt11char_traitsIcESaIcEED1Ev(ptr noundef nonnull align 8 dereferenceable(32) %7) #23
  tail call void @_ZN6casadi10IntegratorD2Ev(ptr noundef nonnull align 8 dereferenceable(1905) %0) #23
  resume { ptr, i32 } %16
}